target datalayout = "e-m:e-p270:32:32-p271:32:32-p272:64:64-i64:64-i128:128-f80:128-n8:16:32:64-S128"
target triple = "x86_64-pc-linux-gnu"

%"struct.TH::THDiskFile__" = type { %"struct.TH::THFile__", ptr, i32, i32 }
%"struct.TH::THFile__" = type { ptr, i32, i32, i32, i32, i32, i32 }

; Function Attrs: mustprogress uwtable
define internal void @_ZN2THL15THDiskFile_freeEPNS_8THFile__E(ptr noundef %0) #6 {
  %2 = alloca ptr, align 8
  %3 = alloca ptr, align 8
  store ptr %0, ptr %2, align 8, !tbaa !11
  call void @llvm.lifetime.start.p0(i64 8, ptr %3) #3
  %4 = load ptr, ptr %2, align 8, !tbaa !11
  store ptr %4, ptr %3, align 8, !tbaa !13
  %5 = load ptr, ptr %3, align 8, !tbaa !13
  %6 = getelementptr inbounds nuw %"struct.TH::THDiskFile__", ptr %5, i32 0, i32 1
  %7 = load ptr, ptr %6, align 8, !tbaa !15
  %8 = icmp ne ptr %7, null
  br i1 %8, label %9, label %14

9:                                                ; preds = %1
  %10 = load ptr, ptr %3, align 8, !tbaa !13
  %11 = getelementptr inbounds nuw %"struct.TH::THDiskFile__", ptr %10, i32 0, i32 1
  %12 = load ptr, ptr %11, align 8, !tbaa !15
  %13 = call i32 @fclose(ptr noundef %12)
  br label %14

14:                                               ; preds = %9, %1
  %15 = load ptr, ptr %3, align 8, !tbaa !13
  call void @free(ptr noundef %15) #3
  call void @llvm.lifetime.end.p0(i64 8, ptr %3) #3
  ret void
}