; Function Attrs: mustprogress nounwind uwtable
define internal void @_ZN2THL15THDiskFile_freeEPNS_8THFile__E(ptr noundef captures(none) %0) #9 {
  %2 = getelementptr inbounds nuw i8, ptr %0, i64 32
  %3 = load ptr, ptr %2, align 8, !tbaa !3
  %.not = icmp eq ptr %3, null
  br i1 %.not, label %6, label %4

4:                                                ; preds = %1
  %5 = tail call i32 @fclose(ptr noundef nonnull %3)
  br label %6

6:                                                ; preds = %4, %1
  tail call void @free(ptr noundef nonnull %0) #17
  ret void
}